; ModuleID = 'source-C-CXX/52/1332.c'
source_filename = "source-C-CXX/52/1332.c"
target datalayout = "e-m:e-p270:32:32-p271:32:32-p272:64:64-i64:64-f80:128-n8:16:32:64-S128"
target triple = "x86_64-pc-linux-gnu"

@.str = private unnamed_addr constant [3 x i8] c"%d\00", align 1
@.str.1 = private unnamed_addr constant [4 x i8] c",%d\00", align 1

; Function Attrs: nofree nounwind sspstrong uwtable
define dso_local void @main() local_unnamed_addr #0 {
  %1 = alloca i32, align 4
  %2 = alloca [300 x i32], align 16
  %3 = alloca [300 x i32], align 16
  %4 = bitcast i32* %1 to i8*
  call void @llvm.lifetime.start.p0i8(i64 4, i8* nonnull %4) #4
  %5 = bitcast [300 x i32]* %2 to i8*
  call void @llvm.lifetime.start.p0i8(i64 1200, i8* nonnull %5) #4
  call void @llvm.memset.p0i8.i64(i8* noundef nonnull align 16 dereferenceable(1200) %5, i8 0, i64 1200, i1 false)
  %6 = bitcast [300 x i32]* %3 to i8*
  call void @llvm.lifetime.start.p0i8(i64 1200, i8* nonnull %6) #4
  call void @llvm.memset.p0i8.i64(i8* noundef nonnull align 16 dereferenceable(1200) %6, i8 0, i64 1200, i1 false)
  %7 = call i32 (i8*, ...) @__isoc99_scanf(i8* getelementptr inbounds ([3 x i8], [3 x i8]* @.str, i64 0, i64 0), i32* nonnull %1)
  %8 = getelementptr inbounds [300 x i32], [300 x i32]* %2, i64 0, i64 0
  %9 = call i32 (i8*, ...) @__isoc99_scanf(i8* getelementptr inbounds ([3 x i8], [3 x i8]* @.str, i64 0, i64 0), i32* nonnull %8)
  %10 = load i32, i32* %8, align 16, !tbaa !5
  %11 = getelementptr inbounds [300 x i32], [300 x i32]* %3, i64 0, i64 0
  store i32 %10, i32* %11, align 16, !tbaa !5
  %12 = load i32, i32* %1, align 4, !tbaa !5
  %13 = icmp sgt i32 %12, 1
  br i1 %13, label %16, label %14

14:                                               ; preds = %0
  %15 = call i32 (i8*, ...) @printf(i8* nonnull dereferenceable(1) getelementptr inbounds ([3 x i8], [3 x i8]* @.str, i64 0, i64 0), i32 %10)
  br label %62

16:                                               ; preds = %0, %41
  %17 = phi i64 [ %44, %41 ], [ 1, %0 ]
  %18 = phi i32 [ %42, %41 ], [ 0, %0 ]
  %19 = phi i32 [ %43, %41 ], [ 0, %0 ]
  %20 = getelementptr inbounds [300 x i32], [300 x i32]* %2, i64 0, i64 %17
  %21 = call i32 (i8*, ...) @__isoc99_scanf(i8* getelementptr inbounds ([3 x i8], [3 x i8]* @.str, i64 0, i64 0), i32* nonnull %20)
  %22 = icmp sgt i32 %19, -1
  br i1 %22, label %23, label %34

23:                                               ; preds = %16
  %24 = load i32, i32* %20, align 4, !tbaa !5
  br label %28

25:                                               ; preds = %28
  %26 = add nsw i32 %29, -1
  %27 = icmp sgt i32 %29, 0
  br i1 %27, label %28, label %36, !llvm.loop !9

28:                                               ; preds = %23, %25
  %29 = phi i32 [ %19, %23 ], [ %26, %25 ]
  %30 = zext i32 %29 to i64
  %31 = getelementptr inbounds [300 x i32], [300 x i32]* %3, i64 0, i64 %30
  %32 = load i32, i32* %31, align 4, !tbaa !5
  %33 = icmp eq i32 %24, %32
  br i1 %33, label %41, label %25

34:                                               ; preds = %16
  %35 = icmp eq i32 %18, 0
  br i1 %35, label %36, label %41

36:                                               ; preds = %25, %34
  %37 = load i32, i32* %20, align 4, !tbaa !5
  %38 = add nsw i32 %19, 1
  %39 = sext i32 %38 to i64
  %40 = getelementptr inbounds [300 x i32], [300 x i32]* %3, i64 0, i64 %39
  store i32 %37, i32* %40, align 4, !tbaa !5
  br label %41

41:                                               ; preds = %28, %34, %36
  %42 = phi i32 [ 0, %36 ], [ %18, %34 ], [ 1, %28 ]
  %43 = phi i32 [ %38, %36 ], [ %19, %34 ], [ %19, %28 ]
  %44 = add nuw nsw i64 %17, 1
  %45 = load i32, i32* %1, align 4, !tbaa !5
  %46 = sext i32 %45 to i64
  %47 = icmp slt i64 %44, %46
  br i1 %47, label %16, label %48, !llvm.loop !11

48:                                               ; preds = %41
  %49 = load i32, i32* %11, align 16, !tbaa !5
  %50 = call i32 (i8*, ...) @printf(i8* nonnull dereferenceable(1) getelementptr inbounds ([3 x i8], [3 x i8]* @.str, i64 0, i64 0), i32 %49)
  %51 = icmp slt i32 %43, 1
  br i1 %51, label %62, label %52

52:                                               ; preds = %48
  %53 = add nuw i32 %43, 1
  %54 = zext i32 %53 to i64
  br label %55

55:                                               ; preds = %52, %55
  %56 = phi i64 [ 1, %52 ], [ %60, %55 ]
  %57 = getelementptr inbounds [300 x i32], [300 x i32]* %3, i64 0, i64 %56
  %58 = load i32, i32* %57, align 4, !tbaa !5
  %59 = call i32 (i8*, ...) @printf(i8* nonnull dereferenceable(1) getelementptr inbounds ([4 x i8], [4 x i8]* @.str.1, i64 0, i64 0), i32 %58)
  %60 = add nuw nsw i64 %56, 1
  %61 = icmp eq i64 %60, %54
  br i1 %61, label %62, label %55, !llvm.loop !12

62:                                               ; preds = %55, %14, %48
  call void @llvm.lifetime.end.p0i8(i64 1200, i8* nonnull %6) #4
  call void @llvm.lifetime.end.p0i8(i64 1200, i8* nonnull %5) #4
  call void @llvm.lifetime.end.p0i8(i64 4, i8* nonnull %4) #4
  ret void
}

; Function Attrs: argmemonly mustprogress nofree nosync nounwind willreturn
declare void @llvm.lifetime.start.p0i8(i64 immarg, i8* nocapture) #1

; Function Attrs: argmemonly mustprogress nofree nounwind willreturn writeonly
declare void @llvm.memset.p0i8.i64(i8* nocapture writeonly, i8, i64, i1 immarg) #2

; Function Attrs: nofree nounwind
declare noundef i32 @__isoc99_scanf(i8* nocapture noundef readonly, ...) local_unnamed_addr #3

; Function Attrs: nofree nounwind
declare noundef i32 @printf(i8* nocapture noundef readonly, ...) local_unnamed_addr #3

; Function Attrs: argmemonly mustprogress nofree nosync nounwind willreturn
declare void @llvm.lifetime.end.p0i8(i64 immarg, i8* nocapture) #1


!llvm.module.flags = !{!0, !1, !2, !3}
!llvm.ident = !{!4}

!0 = !{i32 1, !"wchar_size", i32 4}
!1 = !{i32 7, !"PIC Level", i32 2}
!2 = !{i32 7, !"PIE Level", i32 2}
!3 = !{i32 7, !"uwtable", i32 1}
!4 = !{!"clang version 13.0.0"}
!5 = !{!6, !6, i64 0}
!6 = !{!"int", !7, i64 0}
!7 = !{!"omnipotent char", !8, i64 0}
!8 = !{!"Simple C/C++ TBAA"}
!9 = distinct !{!9, !10}
!10 = !{!"llvm.loop.mustprogress"}
!11 = distinct !{!11, !10}
!12 = distinct !{!12, !10}
